; Function Attrs: mustprogress nounwind uwtable
define internal void @_ZN12_GLOBAL__N_122RangeConstraintManager11assumeSymGEEN4llvm18IntrusiveRefCntPtrIKN5clang4ento12ProgramStateEEEPKNS4_7SymExprERKNS1_6APSIntESD_(ptr dead_on_unwind noalias nocapture writable writeonly sret(%"class.llvm::IntrusiveRefCntPtr.106") align 8 %0, ptr noundef nonnull align 8 dereferenceable(192) %1, ptr nocapture noundef readonly %2, ptr noundef %3, ptr noundef nonnull align 8 dereferenceable(13) %4, ptr noundef nonnull align 8 dereferenceable(13) %5) unnamed_addr #1 align 2 {
  %7 = alloca %"class.llvm::IntrusiveRefCntPtr.106", align 8
  %8 = load ptr, ptr %2, align 8
  store ptr %8, ptr %7, align 8
  %.not.i.i = icmp eq ptr %8, null
  br i1 %.not.i.i, label %_ZN4llvm18IntrusiveRefCntPtrIKN5clang4ento12ProgramStateEEC2ERKS5_.exit.thread, label %10

_ZN4llvm18IntrusiveRefCntPtrIKN5clang4ento12ProgramStateEEC2ERKS5_.exit.thread: ; preds = %6
  %9 = call fastcc ptr @_ZN12_GLOBAL__N_122RangeConstraintManager13getSymGERangeEN4llvm18IntrusiveRefCntPtrIKN5clang4ento12ProgramStateEEEPKNS4_7SymExprERKNS1_6APSIntESD_(ptr noundef nonnull align 8 dereferenceable(192) %1, ptr noundef nonnull %7, ptr noundef %3, ptr noundef nonnull align 8 dereferenceable(13) %4, ptr noundef nonnull align 8 dereferenceable(13) %5)
  br label %_ZN4llvm18IntrusiveRefCntPtrIKN5clang4ento12ProgramStateEED2Ev.exit

10:                                               ; preds = %6
  tail call void @_ZN5clang4ento18ProgramStateRetainEPKNS0_12ProgramStateE(ptr noundef nonnull %8) #22
  %11 = call fastcc ptr @_ZN12_GLOBAL__N_122RangeConstraintManager13getSymGERangeEN4llvm18IntrusiveRefCntPtrIKN5clang4ento12ProgramStateEEEPKNS4_7SymExprERKNS1_6APSIntESD_(ptr noundef nonnull align 8 dereferenceable(192) %1, ptr noundef nonnull %7, ptr noundef %3, ptr noundef nonnull align 8 dereferenceable(13) %4, ptr noundef nonnull align 8 dereferenceable(13) %5)
  tail call void @_ZN5clang4ento19ProgramStateReleaseEPKNS0_12ProgramStateE(ptr noundef nonnull %8) #22
  br label %_ZN4llvm18IntrusiveRefCntPtrIKN5clang4ento12ProgramStateEED2Ev.exit

_ZN4llvm18IntrusiveRefCntPtrIKN5clang4ento12ProgramStateEED2Ev.exit: ; preds = %_ZN4llvm18IntrusiveRefCntPtrIKN5clang4ento12ProgramStateEEC2ERKS5_.exit.thread, %10
  %12 = phi ptr [ %9, %_ZN4llvm18IntrusiveRefCntPtrIKN5clang4ento12ProgramStateEEC2ERKS5_.exit.thread ], [ %11, %10 ]
  %13 = load ptr, ptr %2, align 8
  %.not.i.i7 = icmp eq ptr %13, null
  br i1 %.not.i.i7, label %_ZN4llvm18IntrusiveRefCntPtrIKN5clang4ento12ProgramStateEEC2ERKS5_.exit8.thread, label %14

_ZN4llvm18IntrusiveRefCntPtrIKN5clang4ento12ProgramStateEEC2ERKS5_.exit8.thread: ; preds = %_ZN4llvm18IntrusiveRefCntPtrIKN5clang4ento12ProgramStateEED2Ev.exit
  tail call fastcc void @_ZN12_GLOBAL__N_122RangeConstraintManager8setRangeEN4llvm18IntrusiveRefCntPtrIKN5clang4ento12ProgramStateEEEPKNS4_7SymExprENS4_8RangeSetE(ptr dead_on_unwind noalias writable align 8 %0, ptr noundef nonnull align 8 dereferenceable(192) %1, ptr null, ptr noundef %3, ptr %12)
  br label %_ZN4llvm18IntrusiveRefCntPtrIKN5clang4ento12ProgramStateEED2Ev.exit10

14:                                               ; preds = %_ZN4llvm18IntrusiveRefCntPtrIKN5clang4ento12ProgramStateEED2Ev.exit
  tail call void @_ZN5clang4ento18ProgramStateRetainEPKNS0_12ProgramStateE(ptr noundef nonnull %13) #22
  tail call fastcc void @_ZN12_GLOBAL__N_122RangeConstraintManager8setRangeEN4llvm18IntrusiveRefCntPtrIKN5clang4ento12ProgramStateEEEPKNS4_7SymExprENS4_8RangeSetE(ptr dead_on_unwind noalias writable align 8 %0, ptr noundef nonnull align 8 dereferenceable(192) %1, ptr nonnull %13, ptr noundef %3, ptr %12)
  tail call void @_ZN5clang4ento19ProgramStateReleaseEPKNS0_12ProgramStateE(ptr noundef nonnull %13) #22
  br label %_ZN4llvm18IntrusiveRefCntPtrIKN5clang4ento12ProgramStateEED2Ev.exit10

_ZN4llvm18IntrusiveRefCntPtrIKN5clang4ento12ProgramStateEED2Ev.exit10: ; preds = %_ZN4llvm18IntrusiveRefCntPtrIKN5clang4ento12ProgramStateEEC2ERKS5_.exit8.thread, %14
  ret void
}